; Function Attrs: nofree norecurse nosync nounwind memory(readwrite, inaccessiblemem: none) uwtable
define void @Abc_NtkLoadCopy(ptr noundef readonly captures(none) %0, ptr noundef readonly captures(none) %1) local_unnamed_addr #5 {
  %3 = getelementptr inbounds nuw i8, ptr %0, i64 32
  %4 = load ptr, ptr %3, align 8
  %5 = getelementptr i8, ptr %4, i64 4
  %.val911 = load i32, ptr %5, align 4
  %6 = icmp sgt i32 %.val911, 0
  br i1 %6, label %.lr.ph, label %.critedge

.lr.ph:                                           ; preds = %2
  %7 = getelementptr i8, ptr %1, i64 8
  br label %8

8:                                                ; preds = %.lr.ph, %18
  %9 = phi ptr [ %4, %.lr.ph ], [ %19, %18 ]
  %indvars.iv = phi i64 [ 0, %.lr.ph ], [ %indvars.iv.next, %18 ]
  %10 = getelementptr i8, ptr %9, i64 8
  %.val10.val = load ptr, ptr %10, align 8
  %11 = getelementptr inbounds nuw ptr, ptr %.val10.val, i64 %indvars.iv
  %12 = load ptr, ptr %11, align 8
  %13 = icmp eq ptr %12, null
  br i1 %13, label %18, label %14

14:                                               ; preds = %8
  %.val = load ptr, ptr %7, align 8
  %15 = getelementptr inbounds nuw ptr, ptr %.val, i64 %indvars.iv
  %16 = load ptr, ptr %15, align 8
  %17 = getelementptr inbounds nuw i8, ptr %12, i64 64
  store ptr %16, ptr %17, align 8
  %.pre = load ptr, ptr %3, align 8
  br label %18

18:                                               ; preds = %14, %8
  %19 = phi ptr [ %.pre, %14 ], [ %9, %8 ]
  %indvars.iv.next = add nuw nsw i64 %indvars.iv, 1
  %20 = getelementptr i8, ptr %19, i64 4
  %.val9 = load i32, ptr %20, align 4
  %21 = sext i32 %.val9 to i64
  %22 = icmp slt i64 %indvars.iv.next, %21
  br i1 %22, label %8, label %.critedge, !llvm.loop !37

.critedge:                                        ; preds = %18, %2
  ret void
}